target datalayout = "e-m:e-p270:32:32-p271:32:32-p272:64:64-i64:64-i128:128-f80:128-n8:16:32:64-S128"
target triple = "x86_64-pc-linux-gnu"

%struct._zend_phpdbg_globals = type { [11 x %struct._zend_array], %struct._zend_array, %struct._zend_array, ptr, ptr, %struct.phpdbg_frame_t, i32, ptr, %struct.phpdbg_lexer_data, ptr, %struct.sigaction, i32, i64, %struct.phpdbg_btree, %struct.phpdbg_btree, %struct._zend_array, %struct._zend_array, %struct._zend_array, %struct._zend_array, ptr, ptr, ptr, i8, ptr, ptr, ptr, i64, ptr, %struct._zval_struct, i32, i32, i8, i8, ptr, ptr, ptr, %struct._zend_array, ptr, ptr, ptr, [3 x %struct.anon.8], ptr, %struct.anon.9, i64, [2 x ptr], [3 x ptr], ptr, i8, ptr, ptr, [500 x i8], i32, %struct.phpdbg_signal_safe_mem, ptr, i64, ptr, i64 }
%struct.phpdbg_frame_t = type { i32, ptr, ptr }
%struct.phpdbg_lexer_data = type { i32, ptr, ptr, ptr, ptr, i32 }
%struct.sigaction = type { %union.anon.2, %struct.__sigset_t, i32, ptr }
%union.anon.2 = type { ptr }
%struct.__sigset_t = type { [16 x i64] }
%struct.phpdbg_btree = type { i64, i64, i8, ptr }
%struct._zval_struct = type { %union._zend_value, %union.anon.4, %union.anon.7 }
%union._zend_value = type { i64 }
%union.anon.4 = type { i32 }
%union.anon.7 = type { i32 }
%struct._zend_array = type { %struct._zend_refcounted_h, %union.anon.0, i32, %union.anon.1, i32, i32, i32, i32, i64, ptr }
%struct._zend_refcounted_h = type { i32, %union.anon }
%union.anon = type { i32 }
%union.anon.0 = type { i32 }
%union.anon.1 = type { ptr }
%struct.anon.8 = type { i32 }
%struct.anon.9 = type { i8, i32, i32, ptr, i32 }
%struct.phpdbg_signal_safe_mem = type { ptr, i8, ptr, ptr }
%struct._zend_class_entry = type { i8, ptr, %union.anon.11, i32, i32, i32, i32, ptr, ptr, ptr, %struct._zend_array, %struct._zend_array, %struct._zend_array, ptr, ptr, ptr, ptr, ptr, ptr, ptr, ptr, ptr, ptr, ptr, ptr, ptr, ptr, ptr, ptr, ptr, ptr, ptr, %union.anon.12, ptr, ptr, ptr, ptr, i32, i32, i32, i32, %union.anon.13, ptr, ptr, ptr, ptr, i32, ptr, ptr, %union.anon.14 }
%union.anon.11 = type { ptr }
%union.anon.12 = type { ptr }
%union.anon.13 = type { ptr }
%union.anon.14 = type { %struct.anon.15 }
%struct.anon.15 = type { ptr, i32, i32 }
%struct._zend_string = type { %struct._zend_refcounted_h, i64, i64, [1 x i8] }
%struct._Bucket = type { %struct._zval_struct, i64, ptr }
%struct.anon.10 = type { i8, [3 x i8], i32, ptr, ptr, ptr, i32, i32, ptr, ptr, ptr, ptr, i32, ptr }
%struct.anon.5 = type { i8, i8, %union.anon.6 }
%union.anon.6 = type { i16 }

@.str.4 = private unnamed_addr constant [6 x i8] c"class\00", align 1
@phpdbg_globals = external global %struct._zend_phpdbg_globals, align 8
@.str.37 = private unnamed_addr constant [2 x i8] c"\0A\00", align 1
@.str.43 = private unnamed_addr constant [11 x i8] c"%s %s: %s\0A\00", align 1
@.str.44 = private unnamed_addr constant [5 x i8] c"user\00", align 1
@.str.45 = private unnamed_addr constant [9 x i8] c"internal\00", align 1
@.str.46 = private unnamed_addr constant [10 x i8] c"interface\00", align 1
@.str.47 = private unnamed_addr constant [15 x i8] c"abstract Class\00", align 1
@.str.48 = private unnamed_addr constant [13 x i8] c"%d methods: \00", align 1
@.str.49 = private unnamed_addr constant [3 x i8] c", \00", align 1
@.str.50 = private unnamed_addr constant [3 x i8] c"%s\00", align 1
@.str.51 = private unnamed_addr constant [2 x i8] c"-\00", align 1

; Function Attrs: alwaysinline nounwind uwtable
define internal zeroext i8 @zval_get_type(ptr noundef %0) #1 {
  %2 = alloca ptr, align 8
  store ptr %0, ptr %2, align 8, !tbaa !104
  %3 = load ptr, ptr %2, align 8, !tbaa !104
  %4 = getelementptr inbounds nuw %struct._zval_struct, ptr %3, i32 0, i32 1
  %5 = getelementptr inbounds nuw %struct.anon.5, ptr %4, i32 0, i32 0
  %6 = load i8, ptr %5, align 8, !tbaa !100
  ret i8 %6
}

; Function Attrs: alwaysinline nounwind uwtable
define internal i32 @zend_hash_num_elements(ptr noundef %0) #1 {
  %2 = alloca ptr, align 8
  store ptr %0, ptr %2, align 8, !tbaa !99
  %3 = load ptr, ptr %2, align 8, !tbaa !99
  %4 = getelementptr inbounds nuw %struct._zend_array, ptr %3, i32 0, i32 5
  %5 = load i32, ptr %4, align 4, !tbaa !140
  ret i32 %5
}

; Function Attrs: nounwind uwtable
define internal void @phpdbg_print_opcodes_ce(ptr noundef %0) #0 {
  %2 = alloca ptr, align 8
  %3 = alloca ptr, align 8
  %4 = alloca i8, align 1
  %5 = alloca i32, align 4
  %6 = alloca ptr, align 8
  %7 = alloca ptr, align 8
  %8 = alloca ptr, align 8
  %9 = alloca ptr, align 8
  %10 = alloca ptr, align 8
  %11 = alloca ptr, align 8
  %12 = alloca ptr, align 8
  %13 = alloca ptr, align 8
  store ptr %0, ptr %2, align 8, !tbaa !85
  call void @llvm.lifetime.start.p0(i64 8, ptr %3) #12
  call void @llvm.lifetime.start.p0(i64 1, ptr %4) #12
  store i8 1, ptr %4, align 1, !tbaa !123
  %14 = load i32, ptr getelementptr inbounds ([3 x %struct.anon.8], ptr getelementptr inbounds nuw (%struct._zend_phpdbg_globals, ptr @phpdbg_globals, i32 0, i32 40), i64 0, i64 1), align 4, !tbaa !41
  %15 = load ptr, ptr %2, align 8, !tbaa !85
  %16 = getelementptr inbounds nuw %struct._zend_class_entry, ptr %15, i32 0, i32 0
  %17 = load i8, ptr %16, align 8, !tbaa !86
  %18 = sext i8 %17 to i32
  %19 = icmp eq i32 %18, 2
  %20 = select i1 %19, ptr @.str.44, ptr @.str.45
  %21 = load ptr, ptr %2, align 8, !tbaa !85
  %22 = getelementptr inbounds nuw %struct._zend_class_entry, ptr %21, i32 0, i32 4
  %23 = load i32, ptr %22, align 4, !tbaa !97
  %24 = and i32 %23, 1
  %25 = icmp ne i32 %24, 0
  br i1 %25, label %26, label %27

26:                                               ; preds = %1
  br label %34

27:                                               ; preds = %1
  %28 = load ptr, ptr %2, align 8, !tbaa !85
  %29 = getelementptr inbounds nuw %struct._zend_class_entry, ptr %28, i32 0, i32 4
  %30 = load i32, ptr %29, align 4, !tbaa !97
  %31 = and i32 %30, 64
  %32 = icmp ne i32 %31, 0
  %33 = select i1 %32, ptr @.str.47, ptr @.str.4
  br label %34

34:                                               ; preds = %27, %26
  %35 = phi ptr [ @.str.46, %26 ], [ %33, %27 ]
  %36 = load ptr, ptr %2, align 8, !tbaa !85
  %37 = getelementptr inbounds nuw %struct._zend_class_entry, ptr %36, i32 0, i32 1
  %38 = load ptr, ptr %37, align 8, !tbaa !98
  %39 = getelementptr inbounds nuw %struct._zend_string, ptr %38, i32 0, i32 3
  %40 = getelementptr inbounds [1 x i8], ptr %39, i64 0, i64 0
  %41 = call i32 (i32, ptr, ...) @phpdbg_out_internal(i32 noundef %14, ptr noundef @.str.43, ptr noundef %20, ptr noundef %35, ptr noundef %40)
  %42 = load ptr, ptr %2, align 8, !tbaa !85
  %43 = getelementptr inbounds nuw %struct._zend_class_entry, ptr %42, i32 0, i32 0
  %44 = load i8, ptr %43, align 8, !tbaa !86
  %45 = sext i8 %44 to i32
  %46 = icmp ne i32 %45, 2
  br i1 %46, label %47, label %48

47:                                               ; preds = %34
  store i32 1, ptr %5, align 4
  br label %181

48:                                               ; preds = %34
  %49 = load i32, ptr getelementptr inbounds ([3 x %struct.anon.8], ptr getelementptr inbounds nuw (%struct._zend_phpdbg_globals, ptr @phpdbg_globals, i32 0, i32 40), i64 0, i64 1), align 4, !tbaa !41
  %50 = load ptr, ptr %2, align 8, !tbaa !85
  %51 = getelementptr inbounds nuw %struct._zend_class_entry, ptr %50, i32 0, i32 10
  %52 = call i32 @zend_hash_num_elements(ptr noundef %51)
  %53 = call i32 (i32, ptr, ...) @phpdbg_out_internal(i32 noundef %49, ptr noundef @.str.48, i32 noundef %52)
  br label %54

54:                                               ; preds = %48
  call void @llvm.lifetime.start.p0(i64 8, ptr %6) #12
  %55 = load ptr, ptr %2, align 8, !tbaa !85
  %56 = getelementptr inbounds nuw %struct._zend_class_entry, ptr %55, i32 0, i32 10
  store ptr %56, ptr %6, align 8, !tbaa !99
  call void @llvm.lifetime.start.p0(i64 8, ptr %7) #12
  %57 = load ptr, ptr %6, align 8, !tbaa !99
  %58 = getelementptr inbounds nuw %struct._zend_array, ptr %57, i32 0, i32 3
  %59 = load ptr, ptr %58, align 8, !tbaa !100
  %60 = getelementptr inbounds %struct._Bucket, ptr %59, i64 0
  store ptr %60, ptr %7, align 8, !tbaa !101
  call void @llvm.lifetime.start.p0(i64 8, ptr %8) #12
  %61 = load ptr, ptr %6, align 8, !tbaa !99
  %62 = getelementptr inbounds nuw %struct._zend_array, ptr %61, i32 0, i32 3
  %63 = load ptr, ptr %62, align 8, !tbaa !100
  %64 = load ptr, ptr %6, align 8, !tbaa !99
  %65 = getelementptr inbounds nuw %struct._zend_array, ptr %64, i32 0, i32 4
  %66 = load i32, ptr %65, align 8, !tbaa !103
  %67 = zext i32 %66 to i64
  %68 = getelementptr inbounds nuw %struct._Bucket, ptr %63, i64 %67
  store ptr %68, ptr %8, align 8, !tbaa !101
  %69 = load ptr, ptr %6, align 8, !tbaa !99
  %70 = getelementptr inbounds nuw %struct._zend_array, ptr %69, i32 0, i32 1
  %71 = load i32, ptr %70, align 8, !tbaa !100
  %72 = and i32 %71, 4
  %73 = icmp ne i32 %72, 0
  %74 = xor i1 %73, true
  call void @llvm.assume(i1 %74)
  br label %75

75:                                               ; preds = %114, %54
  %76 = load ptr, ptr %7, align 8, !tbaa !101
  %77 = load ptr, ptr %8, align 8, !tbaa !101
  %78 = icmp ne ptr %76, %77
  br i1 %78, label %79, label %117

79:                                               ; preds = %75
  call void @llvm.lifetime.start.p0(i64 8, ptr %9) #12
  %80 = load ptr, ptr %7, align 8, !tbaa !101
  %81 = getelementptr inbounds nuw %struct._Bucket, ptr %80, i32 0, i32 0
  store ptr %81, ptr %9, align 8, !tbaa !104
  %82 = load ptr, ptr %9, align 8, !tbaa !104
  %83 = call zeroext i8 @zval_get_type(ptr noundef %82)
  %84 = zext i8 %83 to i32
  %85 = icmp eq i32 %84, 0
  %86 = xor i1 %85, true
  %87 = xor i1 %86, true
  %88 = zext i1 %87 to i32
  %89 = sext i32 %88 to i64
  %90 = call i64 @llvm.expect.i64(i64 %89, i64 0)
  %91 = icmp ne i64 %90, 0
  br i1 %91, label %92, label %93

92:                                               ; preds = %79
  store i32 6, ptr %5, align 4
  br label %111

93:                                               ; preds = %79
  %94 = load ptr, ptr %9, align 8, !tbaa !104
  %95 = getelementptr inbounds nuw %struct._zval_struct, ptr %94, i32 0, i32 0
  %96 = load ptr, ptr %95, align 8, !tbaa !100
  store ptr %96, ptr %3, align 8, !tbaa !105
  %97 = load i8, ptr %4, align 1, !tbaa !123, !range !58, !noundef !59
  %98 = trunc i8 %97 to i1
  br i1 %98, label %99, label %100

99:                                               ; preds = %93
  store i8 0, ptr %4, align 1, !tbaa !123
  br label %103

100:                                              ; preds = %93
  %101 = load i32, ptr getelementptr inbounds ([3 x %struct.anon.8], ptr getelementptr inbounds nuw (%struct._zend_phpdbg_globals, ptr @phpdbg_globals, i32 0, i32 40), i64 0, i64 1), align 4, !tbaa !41
  %102 = call i32 (i32, ptr, ...) @phpdbg_out_internal(i32 noundef %101, ptr noundef @.str.49)
  br label %103

103:                                              ; preds = %100, %99
  %104 = load i32, ptr getelementptr inbounds ([3 x %struct.anon.8], ptr getelementptr inbounds nuw (%struct._zend_phpdbg_globals, ptr @phpdbg_globals, i32 0, i32 40), i64 0, i64 1), align 4, !tbaa !41
  %105 = load ptr, ptr %3, align 8, !tbaa !105
  %106 = getelementptr inbounds nuw %struct.anon.10, ptr %105, i32 0, i32 3
  %107 = load ptr, ptr %106, align 8, !tbaa !100
  %108 = getelementptr inbounds nuw %struct._zend_string, ptr %107, i32 0, i32 3
  %109 = getelementptr inbounds [1 x i8], ptr %108, i64 0, i64 0
  %110 = call i32 (i32, ptr, ...) @phpdbg_out_internal(i32 noundef %104, ptr noundef @.str.50, ptr noundef %109)
  store i32 0, ptr %5, align 4
  br label %111

111:                                              ; preds = %103, %92
  call void @llvm.lifetime.end.p0(i64 8, ptr %9) #12
  %112 = load i32, ptr %5, align 4
  switch i32 %112, label %184 [
    i32 0, label %113
    i32 6, label %114
  ]

113:                                              ; preds = %111
  br label %114

114:                                              ; preds = %113, %111
  %115 = load ptr, ptr %7, align 8, !tbaa !101
  %116 = getelementptr inbounds nuw %struct._Bucket, ptr %115, i32 1
  store ptr %116, ptr %7, align 8, !tbaa !101
  br label %75

117:                                              ; preds = %75
  call void @llvm.lifetime.end.p0(i64 8, ptr %8) #12
  call void @llvm.lifetime.end.p0(i64 8, ptr %7) #12
  call void @llvm.lifetime.end.p0(i64 8, ptr %6) #12
  br label %118

118:                                              ; preds = %117
  br label %119

119:                                              ; preds = %118
  %120 = load i8, ptr %4, align 1, !tbaa !123, !range !58, !noundef !59
  %121 = trunc i8 %120 to i1
  br i1 %121, label %122, label %125

122:                                              ; preds = %119
  %123 = load i32, ptr getelementptr inbounds ([3 x %struct.anon.8], ptr getelementptr inbounds nuw (%struct._zend_phpdbg_globals, ptr @phpdbg_globals, i32 0, i32 40), i64 0, i64 1), align 4, !tbaa !41
  %124 = call i32 (i32, ptr, ...) @phpdbg_out_internal(i32 noundef %123, ptr noundef @.str.51)
  br label %125

125:                                              ; preds = %122, %119
  %126 = load i32, ptr getelementptr inbounds ([3 x %struct.anon.8], ptr getelementptr inbounds nuw (%struct._zend_phpdbg_globals, ptr @phpdbg_globals, i32 0, i32 40), i64 0, i64 1), align 4, !tbaa !41
  %127 = call i32 (i32, ptr, ...) @phpdbg_out_internal(i32 noundef %126, ptr noundef @.str.37)
  br label %128

128:                                              ; preds = %125
  call void @llvm.lifetime.start.p0(i64 8, ptr %10) #12
  %129 = load ptr, ptr %2, align 8, !tbaa !85
  %130 = getelementptr inbounds nuw %struct._zend_class_entry, ptr %129, i32 0, i32 10
  store ptr %130, ptr %10, align 8, !tbaa !99
  call void @llvm.lifetime.start.p0(i64 8, ptr %11) #12
  %131 = load ptr, ptr %10, align 8, !tbaa !99
  %132 = getelementptr inbounds nuw %struct._zend_array, ptr %131, i32 0, i32 3
  %133 = load ptr, ptr %132, align 8, !tbaa !100
  %134 = getelementptr inbounds %struct._Bucket, ptr %133, i64 0
  store ptr %134, ptr %11, align 8, !tbaa !101
  call void @llvm.lifetime.start.p0(i64 8, ptr %12) #12
  %135 = load ptr, ptr %10, align 8, !tbaa !99
  %136 = getelementptr inbounds nuw %struct._zend_array, ptr %135, i32 0, i32 3
  %137 = load ptr, ptr %136, align 8, !tbaa !100
  %138 = load ptr, ptr %10, align 8, !tbaa !99
  %139 = getelementptr inbounds nuw %struct._zend_array, ptr %138, i32 0, i32 4
  %140 = load i32, ptr %139, align 8, !tbaa !103
  %141 = zext i32 %140 to i64
  %142 = getelementptr inbounds nuw %struct._Bucket, ptr %137, i64 %141
  store ptr %142, ptr %12, align 8, !tbaa !101
  %143 = load ptr, ptr %10, align 8, !tbaa !99
  %144 = getelementptr inbounds nuw %struct._zend_array, ptr %143, i32 0, i32 1
  %145 = load i32, ptr %144, align 8, !tbaa !100
  %146 = and i32 %145, 4
  %147 = icmp ne i32 %146, 0
  %148 = xor i1 %147, true
  call void @llvm.assume(i1 %148)
  br label %149

149:                                              ; preds = %175, %128
  %150 = load ptr, ptr %11, align 8, !tbaa !101
  %151 = load ptr, ptr %12, align 8, !tbaa !101
  %152 = icmp ne ptr %150, %151
  br i1 %152, label %153, label %178

153:                                              ; preds = %149
  call void @llvm.lifetime.start.p0(i64 8, ptr %13) #12
  %154 = load ptr, ptr %11, align 8, !tbaa !101
  %155 = getelementptr inbounds nuw %struct._Bucket, ptr %154, i32 0, i32 0
  store ptr %155, ptr %13, align 8, !tbaa !104
  %156 = load ptr, ptr %13, align 8, !tbaa !104
  %157 = call zeroext i8 @zval_get_type(ptr noundef %156)
  %158 = zext i8 %157 to i32
  %159 = icmp eq i32 %158, 0
  %160 = xor i1 %159, true
  %161 = xor i1 %160, true
  %162 = zext i1 %161 to i32
  %163 = sext i32 %162 to i64
  %164 = call i64 @llvm.expect.i64(i64 %163, i64 0)
  %165 = icmp ne i64 %164, 0
  br i1 %165, label %166, label %167

166:                                              ; preds = %153
  store i32 11, ptr %5, align 4
  br label %172

167:                                              ; preds = %153
  %168 = load ptr, ptr %13, align 8, !tbaa !104
  %169 = getelementptr inbounds nuw %struct._zval_struct, ptr %168, i32 0, i32 0
  %170 = load ptr, ptr %169, align 8, !tbaa !100
  store ptr %170, ptr %3, align 8, !tbaa !105
  %171 = load ptr, ptr %3, align 8, !tbaa !105
  call void @phpdbg_print_function_helper(ptr noundef %171)
  store i32 0, ptr %5, align 4
  br label %172

172:                                              ; preds = %167, %166
  call void @llvm.lifetime.end.p0(i64 8, ptr %13) #12
  %173 = load i32, ptr %5, align 4
  switch i32 %173, label %184 [
    i32 0, label %174
    i32 11, label %175
  ]

174:                                              ; preds = %172
  br label %175

175:                                              ; preds = %174, %172
  %176 = load ptr, ptr %11, align 8, !tbaa !101
  %177 = getelementptr inbounds nuw %struct._Bucket, ptr %176, i32 1
  store ptr %177, ptr %11, align 8, !tbaa !101
  br label %149

178:                                              ; preds = %149
  call void @llvm.lifetime.end.p0(i64 8, ptr %12) #12
  call void @llvm.lifetime.end.p0(i64 8, ptr %11) #12
  call void @llvm.lifetime.end.p0(i64 8, ptr %10) #12
  br label %179

179:                                              ; preds = %178
  br label %180

180:                                              ; preds = %179
  store i32 0, ptr %5, align 4
  br label %181

181:                                              ; preds = %180, %47
  call void @llvm.lifetime.end.p0(i64 1, ptr %4) #12
  call void @llvm.lifetime.end.p0(i64 8, ptr %3) #12
  %182 = load i32, ptr %5, align 4
  switch i32 %182, label %184 [
    i32 0, label %183
    i32 1, label %183
  ]

183:                                              ; preds = %181, %181
  ret void

184:                                              ; preds = %181, %172, %111
  unreachable
}