; Function Attrs: nounwind uwtable
define internal fastcc void @phpdbg_print_opcodes_ce(ptr noundef readonly captures(none) %0) unnamed_addr #0 {
  %2 = load i32, ptr getelementptr inbounds nuw (i8, ptr @phpdbg_globals, i64 1508), align 4, !tbaa !40
  %3 = load i8, ptr %0, align 8, !tbaa !89
  %4 = icmp eq i8 %3, 2
  %5 = select i1 %4, ptr @.str.44, ptr @.str.45
  %6 = getelementptr inbounds nuw i8, ptr %0, i64 28
  %7 = load i32, ptr %6, align 4, !tbaa !100
  %8 = and i32 %7, 1
  %.not = icmp eq i32 %8, 0
  %9 = and i32 %7, 64
  %.not33 = icmp eq i32 %9, 0
  %10 = select i1 %.not33, ptr @.str.4, ptr @.str.47
  %11 = select i1 %.not, ptr %10, ptr @.str.46
  %12 = getelementptr inbounds nuw i8, ptr %0, i64 8
  %13 = load ptr, ptr %12, align 8, !tbaa !101
  %14 = getelementptr inbounds nuw i8, ptr %13, i64 24
  %15 = tail call i32 (i32, ptr, ...) @phpdbg_out_internal(i32 noundef %2, ptr noundef nonnull @.str.43, ptr noundef nonnull %5, ptr noundef nonnull %11, ptr noundef nonnull %14) #11
  %16 = load i8, ptr %0, align 8, !tbaa !89
  %.not34 = icmp eq i8 %16, 2
  br i1 %.not34, label %17, label %.loopexit

17:                                               ; preds = %1
  %18 = load i32, ptr getelementptr inbounds nuw (i8, ptr @phpdbg_globals, i64 1508), align 4, !tbaa !40
  %19 = getelementptr inbounds nuw i8, ptr %0, i64 92
  %20 = load i32, ptr %19, align 4, !tbaa !102
  %21 = tail call i32 (i32, ptr, ...) @phpdbg_out_internal(i32 noundef %18, ptr noundef nonnull @.str.48, i32 noundef %20) #11
  %22 = getelementptr inbounds nuw i8, ptr %0, i64 80
  %23 = load ptr, ptr %22, align 8, !tbaa !61
  %24 = getelementptr inbounds nuw i8, ptr %0, i64 88
  %25 = load i32, ptr %24, align 8, !tbaa !103
  %26 = zext i32 %25 to i64
  %27 = getelementptr inbounds nuw %struct._Bucket, ptr %23, i64 %26
  %28 = getelementptr inbounds nuw i8, ptr %0, i64 72
  %29 = load i32, ptr %28, align 8, !tbaa !61
  %30 = and i32 %29, 4
  %.not35 = icmp eq i32 %30, 0
  tail call void @llvm.assume(i1 %.not35)
  %.not3639 = icmp eq i32 %25, 0
  br i1 %.not3639, label %._crit_edge.thread, label %.lr.ph

.lr.ph:                                           ; preds = %17, %46
  %.041 = phi i8 [ %.1, %46 ], [ 1, %17 ]
  %.03240 = phi ptr [ %47, %46 ], [ %23, %17 ]
  %31 = getelementptr inbounds nuw i8, ptr %.03240, i64 8
  %32 = load i8, ptr %31, align 8, !tbaa !61
  %33 = icmp eq i8 %32, 0
  br i1 %33, label %46, label %34, !prof !104

34:                                               ; preds = %.lr.ph
  %35 = load ptr, ptr %.03240, align 8, !tbaa !61
  %36 = trunc nuw i8 %.041 to i1
  br i1 %36, label %40, label %37

37:                                               ; preds = %34
  %38 = load i32, ptr getelementptr inbounds nuw (i8, ptr @phpdbg_globals, i64 1508), align 4, !tbaa !40
  %39 = tail call i32 (i32, ptr, ...) @phpdbg_out_internal(i32 noundef %38, ptr noundef nonnull @.str.49) #11
  br label %40

40:                                               ; preds = %34, %37
  %41 = load i32, ptr getelementptr inbounds nuw (i8, ptr @phpdbg_globals, i64 1508), align 4, !tbaa !40
  %42 = getelementptr inbounds nuw i8, ptr %35, i64 8
  %43 = load ptr, ptr %42, align 8, !tbaa !61
  %44 = getelementptr inbounds nuw i8, ptr %43, i64 24
  %45 = tail call i32 (i32, ptr, ...) @phpdbg_out_internal(i32 noundef %41, ptr noundef nonnull @.str.50, ptr noundef nonnull %44) #11
  br label %46

46:                                               ; preds = %.lr.ph, %40
  %.1 = phi i8 [ 0, %40 ], [ %.041, %.lr.ph ]
  %47 = getelementptr inbounds nuw i8, ptr %.03240, i64 32
  %.not36 = icmp eq ptr %47, %27
  br i1 %.not36, label %._crit_edge, label %.lr.ph

._crit_edge:                                      ; preds = %46
  %48 = trunc nuw i8 %.1 to i1
  br i1 %48, label %._crit_edge.thread, label %51

._crit_edge.thread:                               ; preds = %17, %._crit_edge
  %49 = load i32, ptr getelementptr inbounds nuw (i8, ptr @phpdbg_globals, i64 1508), align 4, !tbaa !40
  %50 = tail call i32 (i32, ptr, ...) @phpdbg_out_internal(i32 noundef %49, ptr noundef nonnull @.str.51) #11
  br label %51

51:                                               ; preds = %._crit_edge.thread, %._crit_edge
  %52 = load i32, ptr getelementptr inbounds nuw (i8, ptr @phpdbg_globals, i64 1508), align 4, !tbaa !40
  %53 = tail call i32 (i32, ptr, ...) @phpdbg_out_internal(i32 noundef %52, ptr noundef nonnull @.str.37) #11
  %54 = load ptr, ptr %22, align 8, !tbaa !61
  %55 = load i32, ptr %24, align 8, !tbaa !103
  %56 = zext i32 %55 to i64
  %57 = getelementptr inbounds nuw %struct._Bucket, ptr %54, i64 %56
  %58 = load i32, ptr %28, align 8, !tbaa !61
  %59 = and i32 %58, 4
  %.not37 = icmp eq i32 %59, 0
  tail call void @llvm.assume(i1 %.not37)
  %.not3842 = icmp eq i32 %55, 0
  br i1 %.not3842, label %.loopexit, label %.lr.ph45

.lr.ph45:                                         ; preds = %51, %65
  %.03143 = phi ptr [ %66, %65 ], [ %54, %51 ]
  %60 = getelementptr inbounds nuw i8, ptr %.03143, i64 8
  %61 = load i8, ptr %60, align 8, !tbaa !61
  %62 = icmp eq i8 %61, 0
  br i1 %62, label %65, label %63, !prof !104

63:                                               ; preds = %.lr.ph45
  %64 = load ptr, ptr %.03143, align 8, !tbaa !61
  tail call fastcc void @phpdbg_print_function_helper(ptr noundef %64)
  br label %65

65:                                               ; preds = %.lr.ph45, %63
  %66 = getelementptr inbounds nuw i8, ptr %.03143, i64 32
  %.not38 = icmp eq ptr %66, %57
  br i1 %.not38, label %.loopexit, label %.lr.ph45

.loopexit:                                        ; preds = %65, %51, %1
  ret void
}